target datalayout = "e-m:e-p270:32:32-p271:32:32-p272:64:64-i64:64-i128:128-f80:128-n8:16:32:64-S128"
target triple = "x86_64-pc-linux-gnu"

%struct.stbi_io_callbacks = type { ptr, ptr, ptr }
%struct.stbi__context = type { i32, i32, i32, i32, %struct.stbi_io_callbacks, ptr, i32, i32, [128 x i8], i32, ptr, ptr, ptr, ptr }
%struct.stbi__jpeg = type { ptr, [4 x %struct.stbi__huffman], [4 x %struct.stbi__huffman], [4 x [64 x i16]], [4 x [512 x i16]], i32, i32, i32, i32, i32, i32, [4 x %struct.anon.0], i32, i32, i8, i32, i32, i32, i32, i32, i32, i32, i32, i32, i32, i32, [4 x i32], i32, i32, ptr, ptr, ptr }
%struct.stbi__huffman = type { [512 x i8], [256 x i16], [256 x i8], [257 x i8], [18 x i32], [17 x i32] }
%struct.anon.0 = type { i32, i32, i32, i32, i32, i32, i32, i32, i32, i32, i32, ptr, ptr, ptr, ptr, ptr, i32, i32 }

@stbi__g_failure_reason = internal global ptr null, align 8
@.str.130 = private unnamed_addr constant [7 x i8] c"no SOI\00", align 1
@.str.131 = private unnamed_addr constant [7 x i8] c"no SOF\00", align 1

; Function Attrs: nounwind uwtable
define internal i32 @stbi__at_eof(ptr noundef %0) #0 {
  %2 = alloca i32, align 4
  %3 = alloca ptr, align 8
  store ptr %0, ptr %3, align 8
  %4 = load ptr, ptr %3, align 8
  %5 = getelementptr inbounds nuw %struct.stbi__context, ptr %4, i32 0, i32 4
  %6 = getelementptr inbounds nuw %struct.stbi_io_callbacks, ptr %5, i32 0, i32 0
  %7 = load ptr, ptr %6, align 8
  %8 = icmp ne ptr %7, null
  br i1 %8, label %9, label %27

9:                                                ; preds = %1
  %10 = load ptr, ptr %3, align 8
  %11 = getelementptr inbounds nuw %struct.stbi__context, ptr %10, i32 0, i32 4
  %12 = getelementptr inbounds nuw %struct.stbi_io_callbacks, ptr %11, i32 0, i32 2
  %13 = load ptr, ptr %12, align 8
  %14 = load ptr, ptr %3, align 8
  %15 = getelementptr inbounds nuw %struct.stbi__context, ptr %14, i32 0, i32 5
  %16 = load ptr, ptr %15, align 8
  %17 = call i32 %13(ptr noundef %16)
  %18 = icmp ne i32 %17, 0
  br i1 %18, label %20, label %19

19:                                               ; preds = %9
  store i32 0, ptr %2, align 4
  br label %36

20:                                               ; preds = %9
  %21 = load ptr, ptr %3, align 8
  %22 = getelementptr inbounds nuw %struct.stbi__context, ptr %21, i32 0, i32 6
  %23 = load i32, ptr %22, align 8
  %24 = icmp eq i32 %23, 0
  br i1 %24, label %25, label %26

25:                                               ; preds = %20
  store i32 1, ptr %2, align 4
  br label %36

26:                                               ; preds = %20
  br label %27

27:                                               ; preds = %26, %1
  %28 = load ptr, ptr %3, align 8
  %29 = getelementptr inbounds nuw %struct.stbi__context, ptr %28, i32 0, i32 10
  %30 = load ptr, ptr %29, align 8
  %31 = load ptr, ptr %3, align 8
  %32 = getelementptr inbounds nuw %struct.stbi__context, ptr %31, i32 0, i32 11
  %33 = load ptr, ptr %32, align 8
  %34 = icmp uge ptr %30, %33
  %35 = zext i1 %34 to i32
  store i32 %35, ptr %2, align 4
  br label %36

36:                                               ; preds = %27, %25, %19
  %37 = load i32, ptr %2, align 4
  ret i32 %37
}

; Function Attrs: nounwind uwtable
define internal i32 @stbi__err(ptr noundef %0) #0 {
  %2 = alloca ptr, align 8
  store ptr %0, ptr %2, align 8
  %3 = load ptr, ptr %2, align 8
  store ptr %3, ptr @stbi__g_failure_reason, align 8
  ret i32 0
}

; Function Attrs: nounwind uwtable
define internal i32 @stbi__decode_jpeg_header(ptr noundef %0, i32 noundef %1) #0 {
  %3 = alloca i32, align 4
  %4 = alloca ptr, align 8
  %5 = alloca i32, align 4
  %6 = alloca i32, align 4
  %7 = alloca i32, align 4
  store ptr %0, ptr %4, align 8
  store i32 %1, ptr %5, align 4
  call void @llvm.lifetime.start.p0(i64 4, ptr %6) #19
  %8 = load ptr, ptr %4, align 8
  %9 = getelementptr inbounds nuw %struct.stbi__jpeg, ptr %8, i32 0, i32 22
  store i32 0, ptr %9, align 8
  %10 = load ptr, ptr %4, align 8
  %11 = getelementptr inbounds nuw %struct.stbi__jpeg, ptr %10, i32 0, i32 23
  store i32 -1, ptr %11, align 4
  %12 = load ptr, ptr %4, align 8
  %13 = getelementptr inbounds nuw %struct.stbi__jpeg, ptr %12, i32 0, i32 14
  store i8 -1, ptr %13, align 8
  %14 = load ptr, ptr %4, align 8
  %15 = call zeroext i8 @stbi__get_marker(ptr noundef %14)
  %16 = zext i8 %15 to i32
  store i32 %16, ptr %6, align 4
  %17 = load i32, ptr %6, align 4
  %18 = icmp eq i32 %17, 216
  br i1 %18, label %21, label %19

19:                                               ; preds = %2
  %20 = call i32 @stbi__err(ptr noundef @.str.130)
  store i32 %20, ptr %3, align 4
  store i32 1, ptr %7, align 4
  br label %79

21:                                               ; preds = %2
  %22 = load i32, ptr %5, align 4
  %23 = icmp eq i32 %22, 1
  br i1 %23, label %24, label %25

24:                                               ; preds = %21
  store i32 1, ptr %3, align 4
  store i32 1, ptr %7, align 4
  br label %79

25:                                               ; preds = %21
  %26 = load ptr, ptr %4, align 8
  %27 = call zeroext i8 @stbi__get_marker(ptr noundef %26)
  %28 = zext i8 %27 to i32
  store i32 %28, ptr %6, align 4
  br label %29

29:                                               ; preds = %66, %25
  %30 = load i32, ptr %6, align 4
  %31 = icmp eq i32 %30, 192
  br i1 %31, label %38, label %32

32:                                               ; preds = %29
  %33 = load i32, ptr %6, align 4
  %34 = icmp eq i32 %33, 193
  br i1 %34, label %38, label %35

35:                                               ; preds = %32
  %36 = load i32, ptr %6, align 4
  %37 = icmp eq i32 %36, 194
  br label %38

38:                                               ; preds = %35, %32, %29
  %39 = phi i1 [ true, %32 ], [ true, %29 ], [ %37, %35 ]
  %40 = xor i1 %39, true
  br i1 %40, label %41, label %67

41:                                               ; preds = %38
  %42 = load ptr, ptr %4, align 8
  %43 = load i32, ptr %6, align 4
  %44 = call i32 @stbi__process_marker(ptr noundef %42, i32 noundef %43)
  %45 = icmp ne i32 %44, 0
  br i1 %45, label %47, label %46

46:                                               ; preds = %41
  store i32 0, ptr %3, align 4
  store i32 1, ptr %7, align 4
  br label %79

47:                                               ; preds = %41
  %48 = load ptr, ptr %4, align 8
  %49 = call zeroext i8 @stbi__get_marker(ptr noundef %48)
  %50 = zext i8 %49 to i32
  store i32 %50, ptr %6, align 4
  br label %51

51:                                               ; preds = %62, %47
  %52 = load i32, ptr %6, align 4
  %53 = icmp eq i32 %52, 255
  br i1 %53, label %54, label %66

54:                                               ; preds = %51
  %55 = load ptr, ptr %4, align 8
  %56 = getelementptr inbounds nuw %struct.stbi__jpeg, ptr %55, i32 0, i32 0
  %57 = load ptr, ptr %56, align 8
  %58 = call i32 @stbi__at_eof(ptr noundef %57)
  %59 = icmp ne i32 %58, 0
  br i1 %59, label %60, label %62

60:                                               ; preds = %54
  %61 = call i32 @stbi__err(ptr noundef @.str.131)
  store i32 %61, ptr %3, align 4
  store i32 1, ptr %7, align 4
  br label %79

62:                                               ; preds = %54
  %63 = load ptr, ptr %4, align 8
  %64 = call zeroext i8 @stbi__get_marker(ptr noundef %63)
  %65 = zext i8 %64 to i32
  store i32 %65, ptr %6, align 4
  br label %51

66:                                               ; preds = %51
  br label %29

67:                                               ; preds = %38
  %68 = load i32, ptr %6, align 4
  %69 = icmp eq i32 %68, 194
  %70 = zext i1 %69 to i32
  %71 = load ptr, ptr %4, align 8
  %72 = getelementptr inbounds nuw %struct.stbi__jpeg, ptr %71, i32 0, i32 16
  store i32 %70, ptr %72, align 8
  %73 = load ptr, ptr %4, align 8
  %74 = load i32, ptr %5, align 4
  %75 = call i32 @stbi__process_frame_header(ptr noundef %73, i32 noundef %74)
  %76 = icmp ne i32 %75, 0
  br i1 %76, label %78, label %77

77:                                               ; preds = %67
  store i32 0, ptr %3, align 4
  store i32 1, ptr %7, align 4
  br label %79

78:                                               ; preds = %67
  store i32 1, ptr %3, align 4
  store i32 1, ptr %7, align 4
  br label %79

79:                                               ; preds = %78, %77, %60, %46, %24, %19
  call void @llvm.lifetime.end.p0(i64 4, ptr %6) #19
  %80 = load i32, ptr %3, align 4
  ret i32 %80
}